target datalayout = "e-m:e-p270:32:32-p271:32:32-p272:64:64-i64:64-i128:128-f80:128-n8:16:32:64-S128"
target triple = "x86_64-pc-linux-gnu"

; Function Attrs: nounwind uwtable
define hidden void @opj_read_float_LE(ptr noundef %0, ptr noundef %1) #0 {
  %3 = alloca ptr, align 8
  %4 = alloca ptr, align 8
  %5 = alloca ptr, align 8
  %6 = alloca i32, align 4
  store ptr %0, ptr %3, align 8, !tbaa !3
  store ptr %1, ptr %4, align 8, !tbaa !25
  call void @llvm.lifetime.start.p0(i64 8, ptr %5) #4
  %7 = load ptr, ptr %4, align 8, !tbaa !25
  %8 = getelementptr inbounds nuw i8, ptr %7, i64 4
  %9 = getelementptr inbounds i8, ptr %8, i64 -1
  store ptr %9, ptr %5, align 8, !tbaa !3
  call void @llvm.lifetime.start.p0(i64 4, ptr %6) #4
  store i32 0, ptr %6, align 4, !tbaa !8
  br label %10

10:                                               ; preds = %20, %2
  %11 = load i32, ptr %6, align 4, !tbaa !8
  %12 = zext i32 %11 to i64
  %13 = icmp ult i64 %12, 4
  br i1 %13, label %14, label %23

14:                                               ; preds = %10
  %15 = load ptr, ptr %3, align 8, !tbaa !3
  %16 = getelementptr inbounds nuw i8, ptr %15, i32 1
  store ptr %16, ptr %3, align 8, !tbaa !3
  %17 = load i8, ptr %15, align 1, !tbaa !10
  %18 = load ptr, ptr %5, align 8, !tbaa !3
  %19 = getelementptr inbounds i8, ptr %18, i32 -1
  store ptr %19, ptr %5, align 8, !tbaa !3
  store i8 %17, ptr %18, align 1, !tbaa !10
  br label %20

20:                                               ; preds = %14
  %21 = load i32, ptr %6, align 4, !tbaa !8
  %22 = add i32 %21, 1
  store i32 %22, ptr %6, align 4, !tbaa !8
  br label %10, !llvm.loop !27

23:                                               ; preds = %10
  call void @llvm.lifetime.end.p0(i64 4, ptr %6) #4
  call void @llvm.lifetime.end.p0(i64 8, ptr %5) #4
  ret void
}