; Function Attrs: nofree norecurse nosync nounwind memory(argmem: readwrite) uwtable
define hidden void @opj_read_float_LE(ptr noundef readonly captures(none) %0, ptr noundef writeonly captures(none) %1) local_unnamed_addr #3 {
  %3 = getelementptr inbounds nuw i8, ptr %1, i64 3
  br label %4

4:                                                ; preds = %2, %4
  %.08 = phi i32 [ 0, %2 ], [ %8, %4 ]
  %.047 = phi ptr [ %3, %2 ], [ %7, %4 ]
  %.056 = phi ptr [ %0, %2 ], [ %5, %4 ]
  %5 = getelementptr inbounds nuw i8, ptr %.056, i64 1
  %6 = load i8, ptr %.056, align 1, !tbaa !7
  %7 = getelementptr inbounds i8, ptr %.047, i64 -1
  store i8 %6, ptr %.047, align 1, !tbaa !7
  %8 = add nuw nsw i32 %.08, 1
  %exitcond.not = icmp eq i32 %8, 4
  br i1 %exitcond.not, label %9, label %4, !llvm.loop !18

9:                                                ; preds = %4
  ret void
}